; Function Attrs: mustprogress nofree norecurse nosync nounwind willreturn memory(argmem: readwrite) uwtable
define internal noundef zeroext i1 @"_ZNSt17_Function_handlerIFSt10unique_ptrINSt13__future_base12_Result_baseENS2_8_DeleterEEvENS1_12_Task_setterIS0_INS1_7_ResultIvEES3_EZNS1_11_Task_stateIZN11OpenImageIO6v3_1_010TIFFOutput11write_tilesEiiiiiiNSC_8TypeDescEPKvlllE3$_0SaIiEFviEE6_M_runEOiEUlvE_vEEE10_M_managerERSt9_Any_dataRKSP_St18_Manager_operation"(ptr noundef nonnull writeonly align 8 captures(none) dereferenceable(16) %0, ptr noundef nonnull align 8 dereferenceable(16) %1, i32 noundef %2) #25 align 2 personality ptr @__gxx_personality_v0 {
  switch i32 %2, label %"_ZNSt14_Function_base13_Base_managerINSt13__future_base12_Task_setterISt10unique_ptrINS1_7_ResultIvEENS1_12_Result_base8_DeleterEEZNS1_11_Task_stateIZN11OpenImageIO6v3_1_010TIFFOutput11write_tilesEiiiiiiNSB_8TypeDescEPKvlllE3$_0SaIiEFviEE6_M_runEOiEUlvE_vEEE10_M_managerERSt9_Any_dataRKSO_St18_Manager_operation.exit" [
    i32 0, label %4
    i32 1, label %5
    i32 2, label %6
  ]

4:                                                ; preds = %3
  store ptr @"_ZTINSt13__future_base12_Task_setterISt10unique_ptrINS_7_ResultIvEENS_12_Result_base8_DeleterEEZNS_11_Task_stateIZN11OpenImageIO6v3_1_010TIFFOutput11write_tilesEiiiiiiNS9_8TypeDescEPKvlllE3$_0SaIiEFviEE6_M_runEOiEUlvE_vEE", ptr %0, align 8, !tbaa !858
  br label %"_ZNSt14_Function_base13_Base_managerINSt13__future_base12_Task_setterISt10unique_ptrINS1_7_ResultIvEENS1_12_Result_base8_DeleterEEZNS1_11_Task_stateIZN11OpenImageIO6v3_1_010TIFFOutput11write_tilesEiiiiiiNSB_8TypeDescEPKvlllE3$_0SaIiEFviEE6_M_runEOiEUlvE_vEEE10_M_managerERSt9_Any_dataRKSO_St18_Manager_operation.exit"

5:                                                ; preds = %3
  store ptr %1, ptr %0, align 8, !tbaa !912
  br label %"_ZNSt14_Function_base13_Base_managerINSt13__future_base12_Task_setterISt10unique_ptrINS1_7_ResultIvEENS1_12_Result_base8_DeleterEEZNS1_11_Task_stateIZN11OpenImageIO6v3_1_010TIFFOutput11write_tilesEiiiiiiNSB_8TypeDescEPKvlllE3$_0SaIiEFviEE6_M_runEOiEUlvE_vEEE10_M_managerERSt9_Any_dataRKSO_St18_Manager_operation.exit"

6:                                                ; preds = %3
  tail call void @llvm.memcpy.p0.p0.i64(ptr noundef nonnull align 8 dereferenceable(16) %0, ptr noundef nonnull readonly align 8 dereferenceable(16) %1, i64 16, i1 false), !tbaa.struct !862
  br label %"_ZNSt14_Function_base13_Base_managerINSt13__future_base12_Task_setterISt10unique_ptrINS1_7_ResultIvEENS1_12_Result_base8_DeleterEEZNS1_11_Task_stateIZN11OpenImageIO6v3_1_010TIFFOutput11write_tilesEiiiiiiNSB_8TypeDescEPKvlllE3$_0SaIiEFviEE6_M_runEOiEUlvE_vEEE10_M_managerERSt9_Any_dataRKSO_St18_Manager_operation.exit"

"_ZNSt14_Function_base13_Base_managerINSt13__future_base12_Task_setterISt10unique_ptrINS1_7_ResultIvEENS1_12_Result_base8_DeleterEEZNS1_11_Task_stateIZN11OpenImageIO6v3_1_010TIFFOutput11write_tilesEiiiiiiNSB_8TypeDescEPKvlllE3$_0SaIiEFviEE6_M_runEOiEUlvE_vEEE10_M_managerERSt9_Any_dataRKSO_St18_Manager_operation.exit": ; preds = %3, %6, %5, %4
  ret i1 false
}